target datalayout = "e-m:e-p270:32:32-p271:32:32-p272:64:64-i64:64-i128:128-f80:128-n8:16:32:64-S128"
target triple = "x86_64-pc-linux-gnu"

%struct.Curl_cftype = type { ptr, i32, i32, ptr, ptr, ptr, ptr, ptr, ptr, ptr, ptr, ptr, ptr, ptr, ptr, ptr }
%struct.curltime = type { i64, i32 }
%struct.Curl_easy = type { i32, i64, i64, ptr, %struct.Curl_llist_node, %struct.Curl_llist_node, i32, i32, %struct.Curl_message, %struct.easy_pollset, %struct.Names, ptr, ptr, ptr, ptr, %struct.SingleRequest, %struct.UserDefined, ptr, ptr, ptr, %struct.Progress, %struct.UrlState, ptr, %struct.PureInfo, %struct.curl_tlssessioninfo }
%struct.Curl_llist_node = type { ptr, ptr, ptr, ptr }
%struct.Curl_message = type { %struct.Curl_llist_node, %struct.CURLMsg }
%struct.CURLMsg = type { i32, ptr, %union.anon }
%union.anon = type { ptr }
%struct.easy_pollset = type { [5 x i32], i32, [5 x i8] }
%struct.Names = type { ptr, i32 }
%struct.SingleRequest = type <{ i64, i64, i64, i64, %struct.curltime, i32, i32, i32, i32, i64, i32, i32, i8, i8, [2 x i8], i32, ptr, ptr, %struct.bufq, i64, i64, ptr, ptr, %union.anon.0, ptr, i8, i32, [3 x i8] }>
%struct.bufq = type { ptr, ptr, ptr, ptr, i64, i64, i64, i32 }
%union.anon.0 = type { ptr }
%struct.UserDefined = type <{ ptr, ptr, ptr, ptr, ptr, ptr, i64, i64, i64, ptr, ptr, i64, ptr, ptr, ptr, ptr, ptr, ptr, ptr, ptr, ptr, ptr, ptr, ptr, ptr, ptr, ptr, ptr, ptr, ptr, ptr, ptr, ptr, ptr, ptr, i64, i64, i64, i64, i64, i64, i64, i64, i64, ptr, ptr, %struct.curl_mimepart, ptr, ptr, ptr, i64, %struct.ssl_config_data, %struct.ssl_config_data, ptr, i16, i8, i8, %struct.ssl_general_config, i32, i32, i32, [4 x i8], ptr, ptr, i64, i32, i8, i8, i8, i8, ptr, ptr, ptr, i32, [4 x i8], [74 x ptr], [8 x ptr], i32, i32, i32, [4 x i8], ptr, i32, [4 x i8], ptr, ptr, ptr, ptr, ptr, i32, i32, i32, i32, i32, i32, i32, i32, i64, ptr, ptr, i64, ptr, i64, ptr, ptr, ptr, ptr, i32, i16, i16, i16, i8, i8, i8, i8, i8, i8, i8, i8, i64, [6 x i8] }>
%struct.curl_mimepart = type { ptr, ptr, i32, i32, ptr, ptr, ptr, ptr, ptr, ptr, ptr, ptr, ptr, ptr, ptr, i64, %struct.mime_state, ptr, %struct.mime_encoder_state, i64 }
%struct.mime_state = type { i32, ptr, i64 }
%struct.mime_encoder_state = type { i64, i64, i64, [256 x i8] }
%struct.ssl_config_data = type { %struct.ssl_primary_config, i64, ptr, ptr, ptr, ptr, ptr, ptr, ptr, i16 }
%struct.ssl_primary_config = type { ptr, ptr, ptr, ptr, ptr, ptr, ptr, ptr, ptr, ptr, ptr, ptr, ptr, ptr, i8, i32, i8, i8 }
%struct.ssl_general_config = type { i32 }
%struct.Progress = type { i64, %struct.pgrs_dir, %struct.pgrs_dir, i64, i64, i32, i32, i64, i64, i64, i64, i64, i64, i64, i64, i64, %struct.curltime, %struct.curltime, %struct.curltime, %struct.curltime, %struct.curltime, [6 x i64], [6 x %struct.curltime], i32, i8 }
%struct.pgrs_dir = type { i64, i64, i64, %struct.pgrs_measure }
%struct.pgrs_measure = type { %struct.curltime, i64 }
%struct.UrlState = type { %struct.curltime, i64, i64, %struct.dynbuf, ptr, i64, ptr, i32, i32, i32, ptr, i32, i64, i32, ptr, %struct.digestdata, %struct.digestdata, %struct.auth, %struct.auth, %struct.Curl_async, ptr, i8, %struct.curltime, %struct.Curl_tree, %struct.Curl_llist, [15 x %struct.time_node], ptr, ptr, i64, i64, i64, i64, [32 x i8], i64, ptr, ptr, ptr, %struct.urlpieces, ptr, ptr, ptr, ptr, ptr, i64, %struct.dynbuf, %struct.Curl_llist, [2 x %struct.curl_header], ptr, i32, ptr, ptr, %struct.store_netrc, %struct.dynamically_allocated_data, i8, i8, i8, i8, i32 }
%struct.digestdata = type { ptr, ptr, ptr, ptr, ptr, ptr, i32, i8, i8 }
%struct.auth = type { i64, i64, i64, i8 }
%struct.Curl_async = type { ptr, ptr, ptr, ptr, i32, i32, i8 }
%struct.Curl_tree = type { ptr, ptr, ptr, ptr, %struct.curltime, ptr }
%struct.time_node = type { %struct.Curl_llist_node, %struct.curltime, i32 }
%struct.urlpieces = type { ptr, ptr, ptr, ptr, ptr, ptr, ptr, ptr }
%struct.dynbuf = type { ptr, i64, i64, i64 }
%struct.Curl_llist = type { ptr, ptr, ptr, i64 }
%struct.curl_header = type { ptr, ptr, i64, i64, i32, ptr }
%struct.store_netrc = type { %struct.dynbuf, ptr, i8 }
%struct.dynamically_allocated_data = type { ptr, ptr, ptr, ptr, ptr, ptr, ptr, ptr, ptr, ptr, ptr, ptr, ptr, ptr }
%struct.PureInfo = type { i32, i32, i32, i64, i64, i64, i64, i64, i64, i64, ptr, ptr, i64, i32, %struct.ip_quadruple, i32, ptr, i32, %struct.curl_certinfo, i32, i8 }
%struct.ip_quadruple = type { [46 x i8], [46 x i8], i32, i32 }
%struct.curl_certinfo = type { i32, ptr }
%struct.curl_tlssessioninfo = type { i32, ptr }
%struct.Curl_cfilter = type { ptr, ptr, ptr, ptr, i32, i8 }
%struct.curl_trc_feat = type { ptr, i32 }
%struct.cf_he_ctx = type { i32, ptr, ptr, i32, [2 x ptr], ptr, %struct.curltime }
%struct.eyeballer = type { ptr, ptr, ptr, i32, ptr, ptr, ptr, i64, %struct.curltime, i64, i32, i32, i32, i8 }

@.str.26 = private unnamed_addr constant [27 x i8] c"adjust_pollset -> %d socks\00", align 1

; Function Attrs: nounwind uwtable
define internal void @cf_he_adjust_pollset(ptr noundef %0, ptr noundef %1, ptr noundef %2) #0 {
  %4 = alloca ptr, align 8
  %5 = alloca ptr, align 8
  %6 = alloca ptr, align 8
  %7 = alloca ptr, align 8
  %8 = alloca i64, align 8
  %9 = alloca ptr, align 8
  %10 = alloca i32, align 4
  store ptr %0, ptr %4, align 8, !tbaa !127
  store ptr %1, ptr %5, align 8, !tbaa !10
  store ptr %2, ptr %6, align 8, !tbaa !166
  call void @llvm.lifetime.start.p0(i64 8, ptr %7) #8
  %11 = load ptr, ptr %4, align 8, !tbaa !127
  %12 = getelementptr inbounds nuw %struct.Curl_cfilter, ptr %11, i32 0, i32 2
  %13 = load ptr, ptr %12, align 8, !tbaa !129
  store ptr %13, ptr %7, align 8, !tbaa !132
  call void @llvm.lifetime.start.p0(i64 8, ptr %8) #8
  %14 = load ptr, ptr %4, align 8, !tbaa !127
  %15 = getelementptr inbounds nuw %struct.Curl_cfilter, ptr %14, i32 0, i32 5
  %16 = load i8, ptr %15, align 4
  %17 = and i8 %16, 1
  %18 = zext i8 %17 to i32
  %19 = icmp ne i32 %18, 0
  br i1 %19, label %96, label %20

20:                                               ; preds = %3
  store i64 0, ptr %8, align 8, !tbaa !8
  br label %21

21:                                               ; preds = %47, %20
  %22 = load i64, ptr %8, align 8, !tbaa !8
  %23 = icmp ult i64 %22, 2
  br i1 %23, label %24, label %50

24:                                               ; preds = %21
  call void @llvm.lifetime.start.p0(i64 8, ptr %9) #8
  %25 = load ptr, ptr %7, align 8, !tbaa !132
  %26 = getelementptr inbounds nuw %struct.cf_he_ctx, ptr %25, i32 0, i32 4
  %27 = load i64, ptr %8, align 8, !tbaa !8
  %28 = getelementptr inbounds nuw [2 x ptr], ptr %26, i64 0, i64 %27
  %29 = load ptr, ptr %28, align 8, !tbaa !160
  store ptr %29, ptr %9, align 8, !tbaa !160
  %30 = load ptr, ptr %9, align 8, !tbaa !160
  %31 = icmp ne ptr %30, null
  br i1 %31, label %32, label %37

32:                                               ; preds = %24
  %33 = load ptr, ptr %9, align 8, !tbaa !160
  %34 = getelementptr inbounds nuw %struct.eyeballer, ptr %33, i32 0, i32 5
  %35 = load ptr, ptr %34, align 8, !tbaa !148
  %36 = icmp ne ptr %35, null
  br i1 %36, label %38, label %37

37:                                               ; preds = %32, %24
  store i32 4, ptr %10, align 4
  br label %44

38:                                               ; preds = %32
  %39 = load ptr, ptr %9, align 8, !tbaa !160
  %40 = getelementptr inbounds nuw %struct.eyeballer, ptr %39, i32 0, i32 5
  %41 = load ptr, ptr %40, align 8, !tbaa !148
  %42 = load ptr, ptr %5, align 8, !tbaa !10
  %43 = load ptr, ptr %6, align 8, !tbaa !166
  call void @Curl_conn_cf_adjust_pollset(ptr noundef %41, ptr noundef %42, ptr noundef %43)
  store i32 0, ptr %10, align 4
  br label %44

44:                                               ; preds = %38, %37
  call void @llvm.lifetime.end.p0(i64 8, ptr %9) #8
  %45 = load i32, ptr %10, align 4
  switch i32 %45, label %97 [
    i32 0, label %46
    i32 4, label %47
  ]

46:                                               ; preds = %44
  br label %47

47:                                               ; preds = %46, %44
  %48 = load i64, ptr %8, align 8, !tbaa !8
  %49 = add i64 %48, 1
  store i64 %49, ptr %8, align 8, !tbaa !8
  br label %21, !llvm.loop !168

50:                                               ; preds = %21
  br label %51

51:                                               ; preds = %50
  %52 = load ptr, ptr %5, align 8, !tbaa !10
  %53 = icmp ne ptr %52, null
  br i1 %53, label %54, label %93

54:                                               ; preds = %51
  %55 = load ptr, ptr %5, align 8, !tbaa !10
  %56 = getelementptr inbounds nuw %struct.Curl_easy, ptr %55, i32 0, i32 16
  %57 = getelementptr inbounds nuw %struct.UserDefined, ptr %56, i32 0, i32 119
  %58 = load i64, ptr %57, align 2
  %59 = lshr i64 %58, 31
  %60 = and i64 %59, 1
  %61 = trunc i64 %60 to i32
  %62 = icmp ne i32 %61, 0
  br i1 %62, label %63, label %93

63:                                               ; preds = %54
  %64 = load ptr, ptr %5, align 8, !tbaa !10
  %65 = getelementptr inbounds nuw %struct.Curl_easy, ptr %64, i32 0, i32 21
  %66 = getelementptr inbounds nuw %struct.UrlState, ptr %65, i32 0, i32 50
  %67 = load ptr, ptr %66, align 8, !tbaa !134
  %68 = icmp ne ptr %67, null
  br i1 %68, label %69, label %77

69:                                               ; preds = %63
  %70 = load ptr, ptr %5, align 8, !tbaa !10
  %71 = getelementptr inbounds nuw %struct.Curl_easy, ptr %70, i32 0, i32 21
  %72 = getelementptr inbounds nuw %struct.UrlState, ptr %71, i32 0, i32 50
  %73 = load ptr, ptr %72, align 8, !tbaa !134
  %74 = getelementptr inbounds nuw %struct.curl_trc_feat, ptr %73, i32 0, i32 1
  %75 = load i32, ptr %74, align 8, !tbaa !135
  %76 = icmp sge i32 %75, 1
  br i1 %76, label %77, label %93

77:                                               ; preds = %69, %63
  %78 = load ptr, ptr %4, align 8, !tbaa !127
  %79 = icmp ne ptr %78, null
  br i1 %79, label %80, label %93

80:                                               ; preds = %77
  %81 = load ptr, ptr %4, align 8, !tbaa !127
  %82 = getelementptr inbounds nuw %struct.Curl_cfilter, ptr %81, i32 0, i32 0
  %83 = load ptr, ptr %82, align 8, !tbaa !137
  %84 = getelementptr inbounds nuw %struct.Curl_cftype, ptr %83, i32 0, i32 2
  %85 = load i32, ptr %84, align 4, !tbaa !138
  %86 = icmp sge i32 %85, 1
  br i1 %86, label %87, label %93

87:                                               ; preds = %80
  %88 = load ptr, ptr %5, align 8, !tbaa !10
  %89 = load ptr, ptr %4, align 8, !tbaa !127
  %90 = load ptr, ptr %6, align 8, !tbaa !166
  %91 = getelementptr inbounds nuw %struct.easy_pollset, ptr %90, i32 0, i32 1
  %92 = load i32, ptr %91, align 4, !tbaa !169
  call void (ptr, ptr, ptr, ...) @Curl_trc_cf_infof(ptr noundef %88, ptr noundef %89, ptr noundef @.str.26, i32 noundef %92)
  br label %93

93:                                               ; preds = %87, %80, %77, %69, %54, %51
  br label %94

94:                                               ; preds = %93
  br label %95

95:                                               ; preds = %94
  br label %96

96:                                               ; preds = %95, %3
  call void @llvm.lifetime.end.p0(i64 8, ptr %8) #8
  call void @llvm.lifetime.end.p0(i64 8, ptr %7) #8
  ret void

97:                                               ; preds = %44
  unreachable
}