; Function Attrs: nounwind uwtable
define internal void @cf_he_adjust_pollset(ptr noundef %0, ptr noundef %1, ptr noundef %2) #0 {
  %4 = getelementptr inbounds nuw i8, ptr %0, i64 36
  %5 = load i8, ptr %4, align 4
  %6 = and i8 %5, 1
  %.not = icmp eq i8 %6, 0
  br i1 %.not, label %.preheader, label %41

.preheader:                                       ; preds = %3
  %7 = getelementptr inbounds nuw i8, ptr %0, i64 16
  %8 = load ptr, ptr %7, align 8, !tbaa !105
  %9 = getelementptr inbounds nuw i8, ptr %8, i64 32
  br label %10

10:                                               ; preds = %.preheader, %18
  %11 = phi i1 [ true, %.preheader ], [ false, %18 ]
  %.029 = phi i64 [ 0, %.preheader ], [ 1, %18 ]
  %12 = getelementptr inbounds nuw [2 x ptr], ptr %9, i64 0, i64 %.029
  %13 = load ptr, ptr %12, align 8, !tbaa !115
  %.not27 = icmp eq ptr %13, null
  br i1 %.not27, label %18, label %14

14:                                               ; preds = %10
  %15 = getelementptr inbounds nuw i8, ptr %13, i64 40
  %16 = load ptr, ptr %15, align 8, !tbaa !117
  %.not28 = icmp eq ptr %16, null
  br i1 %.not28, label %18, label %17

17:                                               ; preds = %14
  tail call void @Curl_conn_cf_adjust_pollset(ptr noundef nonnull %16, ptr noundef %1, ptr noundef %2) #10
  br label %18

18:                                               ; preds = %10, %14, %17
  br i1 %11, label %10, label %19, !llvm.loop !172

19:                                               ; preds = %18
  %.not24 = icmp eq ptr %1, null
  br i1 %.not24, label %41, label %20

20:                                               ; preds = %19
  %21 = getelementptr inbounds nuw i8, ptr %1, i64 2658
  %22 = load i64, ptr %21, align 2
  %23 = and i64 %22, 2147483648
  %.not25 = icmp eq i64 %23, 0
  br i1 %.not25, label %41, label %24

24:                                               ; preds = %20
  %25 = getelementptr inbounds nuw i8, ptr %1, i64 4864
  %26 = load ptr, ptr %25, align 8, !tbaa !109
  %.not26 = icmp eq ptr %26, null
  br i1 %.not26, label %32, label %27

27:                                               ; preds = %24
  %28 = getelementptr inbounds nuw i8, ptr %26, i64 8
  %29 = load i32, ptr %28, align 8, !tbaa !110
  %30 = icmp sgt i32 %29, 0
  %31 = icmp ne ptr %0, null
  %or.cond = and i1 %31, %30
  br i1 %or.cond, label %33, label %41

32:                                               ; preds = %24
  %.old1.not = icmp eq ptr %0, null
  br i1 %.old1.not, label %41, label %33

33:                                               ; preds = %27, %32
  %34 = load ptr, ptr %0, align 8, !tbaa !112
  %35 = getelementptr inbounds nuw i8, ptr %34, i64 12
  %36 = load i32, ptr %35, align 4, !tbaa !113
  %37 = icmp sgt i32 %36, 0
  br i1 %37, label %38, label %41

38:                                               ; preds = %33
  %39 = getelementptr inbounds nuw i8, ptr %2, i64 20
  %40 = load i32, ptr %39, align 4, !tbaa !173
  tail call void (ptr, ptr, ptr, ...) @Curl_trc_cf_infof(ptr noundef nonnull %1, ptr noundef nonnull %0, ptr noundef nonnull @.str.26, i32 noundef %40) #10
  br label %41

41:                                               ; preds = %19, %20, %27, %32, %33, %38, %3
  ret void
}